target datalayout = "e-m:e-p270:32:32-p271:32:32-p272:64:64-i64:64-i128:128-f80:128-n8:16:32:64-S128"
target triple = "x86_64-pc-linux-gnu"

%struct.catcache = type { i32, i32, ptr, ptr, [4 x ptr], [4 x ptr], [4 x i32], i32, i32, i32, i32, ptr, ptr, i32, i32, i8, %struct.slist_node, [4 x %struct.ScanKeyData] }
%struct.slist_node = type { ptr }
%struct.ScanKeyData = type { i32, i16, i16, i32, i32, %struct.FmgrInfo, i64 }
%struct.FmgrInfo = type { ptr, i32, i16, i8, i8, i8, ptr, ptr, ptr }

@SysCache = internal global [85 x ptr] zeroinitializer, align 16

; Function Attrs: nounwind uwtable
define dso_local void @ReleaseSysCache(ptr noundef %0) #0 {
  %2 = alloca ptr, align 8
  store ptr %0, ptr %2, align 8
  %3 = load ptr, ptr %2, align 8
  call void @ReleaseCatCache(ptr noundef %3)
  ret void
}

; Function Attrs: nounwind uwtable
define dso_local ptr @SearchSysCache(i32 noundef %0, i64 noundef %1, i64 noundef %2, i64 noundef %3, i64 noundef %4) #0 {
  %6 = alloca i32, align 4
  %7 = alloca i64, align 8
  %8 = alloca i64, align 8
  %9 = alloca i64, align 8
  %10 = alloca i64, align 8
  store i32 %0, ptr %6, align 4
  store i64 %1, ptr %7, align 8
  store i64 %2, ptr %8, align 8
  store i64 %3, ptr %9, align 8
  store i64 %4, ptr %10, align 8
  %11 = load i32, ptr %6, align 4
  %12 = sext i32 %11 to i64
  %13 = getelementptr inbounds [85 x ptr], ptr @SysCache, i64 0, i64 %12
  %14 = load ptr, ptr %13, align 8
  %15 = load i64, ptr %7, align 8
  %16 = load i64, ptr %8, align 8
  %17 = load i64, ptr %9, align 8
  %18 = load i64, ptr %10, align 8
  %19 = call ptr @SearchCatCache(ptr noundef %14, i64 noundef %15, i64 noundef %16, i64 noundef %17, i64 noundef %18)
  ret ptr %19
}

; Function Attrs: nounwind uwtable
define dso_local i32 @GetSysCacheOid(i32 noundef %0, i16 noundef signext %1, i64 noundef %2, i64 noundef %3, i64 noundef %4, i64 noundef %5) #0 {
  %7 = alloca i32, align 4
  %8 = alloca i32, align 4
  %9 = alloca i16, align 2
  %10 = alloca i64, align 8
  %11 = alloca i64, align 8
  %12 = alloca i64, align 8
  %13 = alloca i64, align 8
  %14 = alloca ptr, align 8
  %15 = alloca i8, align 1
  %16 = alloca i32, align 4
  %17 = alloca i32, align 4
  store i32 %0, ptr %8, align 4
  store i16 %1, ptr %9, align 2
  store i64 %2, ptr %10, align 8
  store i64 %3, ptr %11, align 8
  store i64 %4, ptr %12, align 8
  store i64 %5, ptr %13, align 8
  call void @llvm.lifetime.start.p0(i64 8, ptr %14) #6
  call void @llvm.lifetime.start.p0(i64 1, ptr %15) #6
  call void @llvm.lifetime.start.p0(i64 4, ptr %16) #6
  %18 = load i32, ptr %8, align 4
  %19 = load i64, ptr %10, align 8
  %20 = load i64, ptr %11, align 8
  %21 = load i64, ptr %12, align 8
  %22 = load i64, ptr %13, align 8
  %23 = call ptr @SearchSysCache(i32 noundef %18, i64 noundef %19, i64 noundef %20, i64 noundef %21, i64 noundef %22)
  store ptr %23, ptr %14, align 8
  %24 = load ptr, ptr %14, align 8
  %25 = icmp ne ptr %24, null
  br i1 %25, label %27, label %26

26:                                               ; preds = %6
  store i32 0, ptr %7, align 4
  store i32 1, ptr %17, align 4
  br label %41

27:                                               ; preds = %6
  %28 = load ptr, ptr %14, align 8
  %29 = load i16, ptr %9, align 2
  %30 = sext i16 %29 to i32
  %31 = load i32, ptr %8, align 4
  %32 = sext i32 %31 to i64
  %33 = getelementptr inbounds [85 x ptr], ptr @SysCache, i64 0, i64 %32
  %34 = load ptr, ptr %33, align 8
  %35 = getelementptr inbounds nuw %struct.catcache, ptr %34, i32 0, i32 2
  %36 = load ptr, ptr %35, align 8
  %37 = call i64 @heap_getattr(ptr noundef %28, i32 noundef %30, ptr noundef %36, ptr noundef %15)
  %38 = trunc i64 %37 to i32
  store i32 %38, ptr %16, align 4
  %39 = load ptr, ptr %14, align 8
  call void @ReleaseSysCache(ptr noundef %39)
  %40 = load i32, ptr %16, align 4
  store i32 %40, ptr %7, align 4
  store i32 1, ptr %17, align 4
  br label %41

41:                                               ; preds = %27, %26
  call void @llvm.lifetime.end.p0(i64 4, ptr %16) #6
  call void @llvm.lifetime.end.p0(i64 1, ptr %15) #6
  call void @llvm.lifetime.end.p0(i64 8, ptr %14) #6
  %42 = load i32, ptr %7, align 4
  ret i32 %42
}