; Function Attrs: nounwind uwtable
define dso_local i32 @GetSysCacheOid(i32 noundef %0, i16 noundef signext %1, i64 noundef %2, i64 noundef %3, i64 noundef %4, i64 noundef %5) local_unnamed_addr #0 {
  %7 = alloca i8, align 1
  call void @llvm.lifetime.start.p0(i64 1, ptr nonnull %7) #11
  %8 = sext i32 %0 to i64
  %9 = getelementptr inbounds [85 x ptr], ptr @SysCache, i64 0, i64 %8
  %10 = load ptr, ptr %9, align 8
  %11 = tail call ptr @SearchCatCache(ptr noundef %10, i64 noundef %2, i64 noundef %3, i64 noundef %4, i64 noundef %5) #11
  %.not = icmp eq ptr %11, null
  br i1 %.not, label %19, label %12

12:                                               ; preds = %6
  %13 = sext i16 %1 to i32
  %14 = load ptr, ptr %9, align 8
  %15 = getelementptr inbounds nuw i8, ptr %14, i64 8
  %16 = load ptr, ptr %15, align 8
  %17 = call fastcc i64 @heap_getattr(ptr noundef nonnull %11, i32 noundef %13, ptr noundef %16, ptr noundef nonnull %7)
  %18 = trunc i64 %17 to i32
  call void @ReleaseCatCache(ptr noundef nonnull %11) #11
  br label %19

19:                                               ; preds = %6, %12
  %.0 = phi i32 [ %18, %12 ], [ 0, %6 ]
  call void @llvm.lifetime.end.p0(i64 1, ptr nonnull %7) #11
  ret i32 %.0
}